target datalayout = "e-m:e-p270:32:32-p271:32:32-p272:64:64-i64:64-i128:128-f80:128-n8:16:32:64-S128"
target triple = "x86_64-pc-linux-gnu"

%struct.xSAT_Clause_t_ = type { i32, i32, [0 x %union.anon] }
%union.anon = type { i32 }
%struct.xSAT_Mem_t_ = type { i32, i32, i32, ptr }

; Function Attrs: inlinehint nounwind uwtable
define internal void @xSAT_MemGrow(ptr noundef %0, i32 noundef %1) #2 {
  %3 = alloca ptr, align 8
  %4 = alloca i32, align 4
  %5 = alloca i32, align 4
  %6 = alloca i32, align 4
  %7 = alloca i32, align 4
  store ptr %0, ptr %3, align 8, !tbaa !59
  store i32 %1, ptr %4, align 4, !tbaa !23
  call void @llvm.lifetime.start.p0(i64 4, ptr %5) #11
  %8 = load ptr, ptr %3, align 8, !tbaa !59
  %9 = getelementptr inbounds nuw %struct.xSAT_Mem_t_, ptr %8, i32 0, i32 1
  %10 = load i32, ptr %9, align 4, !tbaa !149
  store i32 %10, ptr %5, align 4, !tbaa !23
  %11 = load ptr, ptr %3, align 8, !tbaa !59
  %12 = getelementptr inbounds nuw %struct.xSAT_Mem_t_, ptr %11, i32 0, i32 1
  %13 = load i32, ptr %12, align 4, !tbaa !149
  %14 = load i32, ptr %4, align 4, !tbaa !23
  %15 = icmp uge i32 %13, %14
  br i1 %15, label %16, label %17

16:                                               ; preds = %2
  store i32 1, ptr %6, align 4
  br label %67

17:                                               ; preds = %2
  br label %18

18:                                               ; preds = %24, %17
  %19 = load ptr, ptr %3, align 8, !tbaa !59
  %20 = getelementptr inbounds nuw %struct.xSAT_Mem_t_, ptr %19, i32 0, i32 1
  %21 = load i32, ptr %20, align 4, !tbaa !149
  %22 = load i32, ptr %4, align 4, !tbaa !23
  %23 = icmp ult i32 %21, %22
  br i1 %23, label %24, label %41

24:                                               ; preds = %18
  call void @llvm.lifetime.start.p0(i64 4, ptr %7) #11
  %25 = load ptr, ptr %3, align 8, !tbaa !59
  %26 = getelementptr inbounds nuw %struct.xSAT_Mem_t_, ptr %25, i32 0, i32 1
  %27 = load i32, ptr %26, align 4, !tbaa !149
  %28 = lshr i32 %27, 1
  %29 = load ptr, ptr %3, align 8, !tbaa !59
  %30 = getelementptr inbounds nuw %struct.xSAT_Mem_t_, ptr %29, i32 0, i32 1
  %31 = load i32, ptr %30, align 4, !tbaa !149
  %32 = lshr i32 %31, 3
  %33 = add i32 %28, %32
  %34 = add i32 %33, 2
  %35 = and i32 %34, -2
  store i32 %35, ptr %7, align 4, !tbaa !23
  %36 = load i32, ptr %7, align 4, !tbaa !23
  %37 = load ptr, ptr %3, align 8, !tbaa !59
  %38 = getelementptr inbounds nuw %struct.xSAT_Mem_t_, ptr %37, i32 0, i32 1
  %39 = load i32, ptr %38, align 4, !tbaa !149
  %40 = add i32 %39, %36
  store i32 %40, ptr %38, align 4, !tbaa !149
  call void @llvm.lifetime.end.p0(i64 4, ptr %7) #11
  br label %18, !llvm.loop !153

41:                                               ; preds = %18
  %42 = load ptr, ptr %3, align 8, !tbaa !59
  %43 = getelementptr inbounds nuw %struct.xSAT_Mem_t_, ptr %42, i32 0, i32 3
  %44 = load ptr, ptr %43, align 8, !tbaa !107
  %45 = icmp ne ptr %44, null
  br i1 %45, label %46, label %56

46:                                               ; preds = %41
  %47 = load ptr, ptr %3, align 8, !tbaa !59
  %48 = getelementptr inbounds nuw %struct.xSAT_Mem_t_, ptr %47, i32 0, i32 3
  %49 = load ptr, ptr %48, align 8, !tbaa !107
  %50 = load ptr, ptr %3, align 8, !tbaa !59
  %51 = getelementptr inbounds nuw %struct.xSAT_Mem_t_, ptr %50, i32 0, i32 1
  %52 = load i32, ptr %51, align 4, !tbaa !149
  %53 = zext i32 %52 to i64
  %54 = mul i64 4, %53
  %55 = call ptr @realloc(ptr noundef %49, i64 noundef %54) #13
  br label %63

56:                                               ; preds = %41
  %57 = load ptr, ptr %3, align 8, !tbaa !59
  %58 = getelementptr inbounds nuw %struct.xSAT_Mem_t_, ptr %57, i32 0, i32 1
  %59 = load i32, ptr %58, align 4, !tbaa !149
  %60 = zext i32 %59 to i64
  %61 = mul i64 4, %60
  %62 = call noalias ptr @malloc(i64 noundef %61) #12
  br label %63

63:                                               ; preds = %56, %46
  %64 = phi ptr [ %55, %46 ], [ %62, %56 ]
  %65 = load ptr, ptr %3, align 8, !tbaa !59
  %66 = getelementptr inbounds nuw %struct.xSAT_Mem_t_, ptr %65, i32 0, i32 3
  store ptr %64, ptr %66, align 8, !tbaa !107
  store i32 0, ptr %6, align 4
  br label %67

67:                                               ; preds = %63, %16
  call void @llvm.lifetime.end.p0(i64 4, ptr %5) #11
  %68 = load i32, ptr %6, align 4
  switch i32 %68, label %70 [
    i32 0, label %69
    i32 1, label %69
  ]

69:                                               ; preds = %67, %67
  ret void

70:                                               ; preds = %67
  unreachable
}

; Function Attrs: inlinehint nounwind uwtable
define internal i32 @xSAT_MemAppend(ptr noundef %0, i32 noundef %1) #2 {
  %3 = alloca ptr, align 8
  %4 = alloca i32, align 4
  %5 = alloca i32, align 4
  store ptr %0, ptr %3, align 8, !tbaa !59
  store i32 %1, ptr %4, align 4, !tbaa !23
  call void @llvm.lifetime.start.p0(i64 4, ptr %5) #11
  %6 = load ptr, ptr %3, align 8, !tbaa !59
  %7 = load ptr, ptr %3, align 8, !tbaa !59
  %8 = getelementptr inbounds nuw %struct.xSAT_Mem_t_, ptr %7, i32 0, i32 0
  %9 = load i32, ptr %8, align 8, !tbaa !60
  %10 = load i32, ptr %4, align 4, !tbaa !23
  %11 = add i32 %9, %10
  call void @xSAT_MemGrow(ptr noundef %6, i32 noundef %11)
  %12 = load ptr, ptr %3, align 8, !tbaa !59
  %13 = getelementptr inbounds nuw %struct.xSAT_Mem_t_, ptr %12, i32 0, i32 0
  %14 = load i32, ptr %13, align 8, !tbaa !60
  store i32 %14, ptr %5, align 4, !tbaa !23
  %15 = load i32, ptr %4, align 4, !tbaa !23
  %16 = load ptr, ptr %3, align 8, !tbaa !59
  %17 = getelementptr inbounds nuw %struct.xSAT_Mem_t_, ptr %16, i32 0, i32 0
  %18 = load i32, ptr %17, align 8, !tbaa !60
  %19 = add i32 %18, %15
  store i32 %19, ptr %17, align 8, !tbaa !60
  %20 = load i32, ptr %5, align 4, !tbaa !23
  call void @llvm.lifetime.end.p0(i64 4, ptr %5) #11
  ret i32 %20
}

; Function Attrs: inlinehint nounwind uwtable
define internal ptr @xSAT_MemClauseHand(ptr noundef %0, i32 noundef %1) #2 {
  %3 = alloca ptr, align 8
  %4 = alloca i32, align 4
  store ptr %0, ptr %3, align 8, !tbaa !59
  store i32 %1, ptr %4, align 4, !tbaa !23
  %5 = load i32, ptr %4, align 4, !tbaa !23
  %6 = icmp ne i32 %5, -1
  br i1 %6, label %7, label %14

7:                                                ; preds = %2
  %8 = load ptr, ptr %3, align 8, !tbaa !59
  %9 = getelementptr inbounds nuw %struct.xSAT_Mem_t_, ptr %8, i32 0, i32 3
  %10 = load ptr, ptr %9, align 8, !tbaa !107
  %11 = load i32, ptr %4, align 4, !tbaa !23
  %12 = sext i32 %11 to i64
  %13 = getelementptr inbounds i32, ptr %10, i64 %12
  br label %15

14:                                               ; preds = %2
  br label %15

15:                                               ; preds = %14, %7
  %16 = phi ptr [ %13, %7 ], [ null, %14 ]
  ret ptr %16
}

; Function Attrs: nounwind uwtable
define void @xSAT_SolverClaRealloc(ptr noundef %0, ptr noundef %1, ptr noundef %2) #0 {
  %4 = alloca ptr, align 8
  %5 = alloca ptr, align 8
  %6 = alloca ptr, align 8
  %7 = alloca i32, align 4
  %8 = alloca ptr, align 8
  %9 = alloca ptr, align 8
  %10 = alloca i32, align 4
  store ptr %0, ptr %4, align 8, !tbaa !59
  store ptr %1, ptr %5, align 8, !tbaa !59
  store ptr %2, ptr %6, align 8, !tbaa !89
  call void @llvm.lifetime.start.p0(i64 4, ptr %7) #11
  call void @llvm.lifetime.start.p0(i64 8, ptr %8) #11
  call void @llvm.lifetime.start.p0(i64 8, ptr %9) #11
  %11 = load ptr, ptr %5, align 8, !tbaa !59
  %12 = load ptr, ptr %6, align 8, !tbaa !89
  %13 = load i32, ptr %12, align 4, !tbaa !23
  %14 = call ptr @xSAT_MemClauseHand(ptr noundef %11, i32 noundef %13)
  store ptr %14, ptr %9, align 8, !tbaa !46
  %15 = load ptr, ptr %9, align 8, !tbaa !46
  %16 = load i32, ptr %15, align 4
  %17 = lshr i32 %16, 2
  %18 = and i32 %17, 1
  %19 = icmp ne i32 %18, 0
  br i1 %19, label %20, label %25

20:                                               ; preds = %3
  %21 = load ptr, ptr %9, align 8, !tbaa !46
  %22 = getelementptr inbounds nuw %struct.xSAT_Clause_t_, ptr %21, i32 0, i32 1
  %23 = load i32, ptr %22, align 4, !tbaa !48
  %24 = load ptr, ptr %6, align 8, !tbaa !89
  store i32 %23, ptr %24, align 4, !tbaa !23
  store i32 1, ptr %10, align 4
  br label %60

25:                                               ; preds = %3
  %26 = load ptr, ptr %4, align 8, !tbaa !59
  %27 = load ptr, ptr %9, align 8, !tbaa !46
  %28 = load i32, ptr %27, align 4
  %29 = and i32 %28, 1
  %30 = add nsw i32 3, %29
  %31 = load ptr, ptr %9, align 8, !tbaa !46
  %32 = getelementptr inbounds nuw %struct.xSAT_Clause_t_, ptr %31, i32 0, i32 1
  %33 = load i32, ptr %32, align 4, !tbaa !48
  %34 = add nsw i32 %30, %33
  %35 = call i32 @xSAT_MemAppend(ptr noundef %26, i32 noundef %34)
  store i32 %35, ptr %7, align 4, !tbaa !23
  %36 = load ptr, ptr %4, align 8, !tbaa !59
  %37 = load i32, ptr %7, align 4, !tbaa !23
  %38 = call ptr @xSAT_MemClauseHand(ptr noundef %36, i32 noundef %37)
  store ptr %38, ptr %8, align 8, !tbaa !46
  %39 = load ptr, ptr %8, align 8, !tbaa !46
  %40 = load ptr, ptr %9, align 8, !tbaa !46
  %41 = load ptr, ptr %9, align 8, !tbaa !46
  %42 = load i32, ptr %41, align 4
  %43 = and i32 %42, 1
  %44 = add nsw i32 3, %43
  %45 = load ptr, ptr %9, align 8, !tbaa !46
  %46 = getelementptr inbounds nuw %struct.xSAT_Clause_t_, ptr %45, i32 0, i32 1
  %47 = load i32, ptr %46, align 4, !tbaa !48
  %48 = add nsw i32 %44, %47
  %49 = mul nsw i32 %48, 4
  %50 = sext i32 %49 to i64
  call void @llvm.memcpy.p0.p0.i64(ptr align 4 %39, ptr align 4 %40, i64 %50, i1 false)
  %51 = load ptr, ptr %9, align 8, !tbaa !46
  %52 = load i32, ptr %51, align 4
  %53 = and i32 %52, -5
  %54 = or i32 %53, 4
  store i32 %54, ptr %51, align 4
  %55 = load i32, ptr %7, align 4, !tbaa !23
  %56 = load ptr, ptr %9, align 8, !tbaa !46
  %57 = getelementptr inbounds nuw %struct.xSAT_Clause_t_, ptr %56, i32 0, i32 1
  store i32 %55, ptr %57, align 4, !tbaa !48
  %58 = load i32, ptr %7, align 4, !tbaa !23
  %59 = load ptr, ptr %6, align 8, !tbaa !89
  store i32 %58, ptr %59, align 4, !tbaa !23
  store i32 0, ptr %10, align 4
  br label %60

60:                                               ; preds = %25, %20
  call void @llvm.lifetime.end.p0(i64 8, ptr %9) #11
  call void @llvm.lifetime.end.p0(i64 8, ptr %8) #11
  call void @llvm.lifetime.end.p0(i64 4, ptr %7) #11
  %61 = load i32, ptr %10, align 4
  switch i32 %61, label %63 [
    i32 0, label %62
    i32 1, label %62
  ]

62:                                               ; preds = %60, %60
  ret void

63:                                               ; preds = %60
  unreachable
}