; Function Attrs: nounwind uwtable
define void @xSAT_SolverClaRealloc(ptr noundef captures(none) %0, ptr noundef readonly captures(none) %1, ptr noundef captures(none) %2) local_unnamed_addr #0 {
  %4 = load i32, ptr %2, align 4, !tbaa !30
  %.not.i = icmp eq i32 %4, -1
  br i1 %.not.i, label %xSAT_MemClauseHand.exit, label %5

5:                                                ; preds = %3
  %6 = getelementptr inbounds nuw i8, ptr %1, i64 16
  %7 = load ptr, ptr %6, align 8, !tbaa !46
  %8 = sext i32 %4 to i64
  %9 = getelementptr inbounds i32, ptr %7, i64 %8
  br label %xSAT_MemClauseHand.exit

xSAT_MemClauseHand.exit:                          ; preds = %3, %5
  %10 = phi ptr [ %9, %5 ], [ null, %3 ]
  %11 = load i32, ptr %10, align 4
  %12 = and i32 %11, 4
  %.not = icmp eq i32 %12, 0
  br i1 %.not, label %16, label %13

13:                                               ; preds = %xSAT_MemClauseHand.exit
  %14 = getelementptr inbounds nuw i8, ptr %10, i64 4
  %15 = load i32, ptr %14, align 4, !tbaa !47
  br label %61

16:                                               ; preds = %xSAT_MemClauseHand.exit
  %17 = and i32 %11, 1
  %18 = add nuw nsw i32 %17, 3
  %19 = getelementptr inbounds nuw i8, ptr %10, i64 4
  %20 = load i32, ptr %19, align 4, !tbaa !47
  %21 = add nsw i32 %18, %20
  %22 = load i32, ptr %0, align 8, !tbaa !42
  %23 = add i32 %22, %21
  %24 = getelementptr inbounds nuw i8, ptr %0, i64 4
  %25 = load i32, ptr %24, align 4, !tbaa !44
  %.not.i.i = icmp ult i32 %25, %23
  br i1 %.not.i.i, label %.lr.ph.i.i, label %xSAT_MemAppend.exit

.lr.ph.i.i:                                       ; preds = %16, %.lr.ph.i.i
  %26 = phi i32 [ %32, %.lr.ph.i.i ], [ %25, %16 ]
  %27 = lshr i32 %26, 1
  %28 = lshr i32 %26, 3
  %29 = add nuw i32 %27, %28
  %30 = and i32 %29, -2
  %31 = add i32 %26, 2
  %32 = add i32 %31, %30
  %33 = icmp ult i32 %32, %23
  br i1 %33, label %.lr.ph.i.i, label %34, !llvm.loop !45

34:                                               ; preds = %.lr.ph.i.i
  store i32 %32, ptr %24, align 4, !tbaa !44
  %35 = getelementptr inbounds nuw i8, ptr %0, i64 16
  %36 = load ptr, ptr %35, align 8, !tbaa !46
  %.not14.i.i = icmp eq ptr %36, null
  %37 = zext i32 %32 to i64
  %38 = shl nuw nsw i64 %37, 2
  br i1 %.not14.i.i, label %41, label %39

39:                                               ; preds = %34
  %40 = tail call ptr @realloc(ptr noundef nonnull %36, i64 noundef %38) #19
  %.pre.pre.i = load i32, ptr %0, align 8, !tbaa !42
  %.pre8.i = add i32 %.pre.pre.i, %21
  br label %43

41:                                               ; preds = %34
  %42 = tail call noalias ptr @malloc(i64 noundef %38) #18
  br label %43

43:                                               ; preds = %41, %39
  %.pre7.pre-phi.i = phi i32 [ %23, %41 ], [ %.pre8.i, %39 ]
  %.pre.i = phi i32 [ %22, %41 ], [ %.pre.pre.i, %39 ]
  %44 = phi ptr [ %42, %41 ], [ %40, %39 ]
  store ptr %44, ptr %35, align 8, !tbaa !46
  br label %xSAT_MemAppend.exit

xSAT_MemAppend.exit:                              ; preds = %16, %43
  %.pre-phi.i = phi i32 [ %23, %16 ], [ %.pre7.pre-phi.i, %43 ]
  %45 = phi i32 [ %22, %16 ], [ %.pre.i, %43 ]
  store i32 %.pre-phi.i, ptr %0, align 8, !tbaa !42
  %.not.i18 = icmp eq i32 %45, -1
  br i1 %.not.i18, label %xSAT_MemClauseHand.exit19, label %46

46:                                               ; preds = %xSAT_MemAppend.exit
  %47 = getelementptr inbounds nuw i8, ptr %0, i64 16
  %48 = load ptr, ptr %47, align 8, !tbaa !46
  %49 = sext i32 %45 to i64
  %50 = getelementptr inbounds i32, ptr %48, i64 %49
  br label %xSAT_MemClauseHand.exit19

xSAT_MemClauseHand.exit19:                        ; preds = %xSAT_MemAppend.exit, %46
  %51 = phi ptr [ %50, %46 ], [ null, %xSAT_MemAppend.exit ]
  %52 = load i32, ptr %10, align 4
  %53 = and i32 %52, 1
  %54 = add nuw nsw i32 %53, 3
  %55 = load i32, ptr %19, align 4, !tbaa !47
  %56 = add nsw i32 %54, %55
  %57 = shl nsw i32 %56, 2
  %58 = sext i32 %57 to i64
  tail call void @llvm.memcpy.p0.p0.i64(ptr align 4 %51, ptr nonnull align 4 %10, i64 %58, i1 false)
  %59 = load i32, ptr %10, align 4
  %60 = or i32 %59, 4
  store i32 %60, ptr %10, align 4
  store i32 %45, ptr %19, align 4, !tbaa !47
  br label %61

61:                                               ; preds = %xSAT_MemClauseHand.exit19, %13
  %storemerge = phi i32 [ %45, %xSAT_MemClauseHand.exit19 ], [ %15, %13 ]
  store i32 %storemerge, ptr %2, align 4, !tbaa !30
  ret void
}